target datalayout = "e-m:e-p270:32:32-p271:32:32-p272:64:64-i64:64-i128:128-f80:128-n8:16:32:64-S128"
target triple = "x86_64-pc-linux-gnu"

%struct.AVFormatContext = type { ptr, ptr, ptr, ptr, ptr, i32, i32, ptr, i32, ptr, i32, ptr, ptr, i64, i64, i64, i32, i32, i32, i64, i64, ptr, i32, i32, ptr, i32, i32, i32, i32, ptr, i64, i32, i32, %struct.AVIOInterruptCB, i32, i32, i32, i32, i64, i32, i32, i32, i32, i32, i32, i32, i32, i32, i32, i32, i32, i64, i32, i32, i32, i32, i32, ptr, ptr, ptr, ptr, i32, ptr, ptr, ptr, ptr, i32, ptr, ptr, i64, ptr, ptr, ptr, i64 }
%struct.AVIOInterruptCB = type { ptr, ptr }
%struct.SmoothStreamingContext = type { ptr, i32, i32, i32, i32, i32, ptr, i32, i32, i32 }
%struct.OutputStream = type { ptr, ptr, ptr, ptr, i64, i64, i64, i32, ptr, i32, i32, i32, ptr, ptr, ptr, i32, i32, [1024 x i8], [32768 x i8] }

; Function Attrs: nounwind uwtable
define internal void @ism_free(ptr noundef %0) #0 {
  %2 = alloca ptr, align 8
  %3 = alloca ptr, align 8
  %4 = alloca i32, align 4
  %5 = alloca i32, align 4
  %6 = alloca i32, align 4
  %7 = alloca ptr, align 8
  store ptr %0, ptr %2, align 8, !tbaa !4
  call void @llvm.lifetime.start.p0(i64 8, ptr %3) #9
  %8 = load ptr, ptr %2, align 8, !tbaa !4
  %9 = getelementptr inbounds nuw %struct.AVFormatContext, ptr %8, i32 0, i32 3
  %10 = load ptr, ptr %9, align 8, !tbaa !9
  store ptr %10, ptr %3, align 8, !tbaa !26
  call void @llvm.lifetime.start.p0(i64 4, ptr %4) #9
  call void @llvm.lifetime.start.p0(i64 4, ptr %5) #9
  %11 = load ptr, ptr %3, align 8, !tbaa !26
  %12 = getelementptr inbounds nuw %struct.SmoothStreamingContext, ptr %11, i32 0, i32 6
  %13 = load ptr, ptr %12, align 8, !tbaa !32
  %14 = icmp ne ptr %13, null
  br i1 %14, label %16, label %15

15:                                               ; preds = %1
  store i32 1, ptr %6, align 4
  br label %86

16:                                               ; preds = %1
  store i32 0, ptr %4, align 4, !tbaa !28
  br label %17

17:                                               ; preds = %80, %16
  %18 = load i32, ptr %4, align 4, !tbaa !28
  %19 = load ptr, ptr %2, align 8, !tbaa !4
  %20 = getelementptr inbounds nuw %struct.AVFormatContext, ptr %19, i32 0, i32 6
  %21 = load i32, ptr %20, align 4, !tbaa !31
  %22 = icmp ult i32 %18, %21
  br i1 %22, label %23, label %83

23:                                               ; preds = %17
  call void @llvm.lifetime.start.p0(i64 8, ptr %7) #9
  %24 = load ptr, ptr %3, align 8, !tbaa !26
  %25 = getelementptr inbounds nuw %struct.SmoothStreamingContext, ptr %24, i32 0, i32 6
  %26 = load ptr, ptr %25, align 8, !tbaa !32
  %27 = load i32, ptr %4, align 4, !tbaa !28
  %28 = sext i32 %27 to i64
  %29 = getelementptr inbounds %struct.OutputStream, ptr %26, i64 %28
  store ptr %29, ptr %7, align 8, !tbaa !35
  %30 = load ptr, ptr %7, align 8, !tbaa !35
  %31 = getelementptr inbounds nuw %struct.OutputStream, ptr %30, i32 0, i32 1
  %32 = call i32 @ffurl_closep(ptr noundef %31)
  %33 = load ptr, ptr %7, align 8, !tbaa !35
  %34 = getelementptr inbounds nuw %struct.OutputStream, ptr %33, i32 0, i32 2
  %35 = call i32 @ffurl_closep(ptr noundef %34)
  %36 = load ptr, ptr %7, align 8, !tbaa !35
  %37 = getelementptr inbounds nuw %struct.OutputStream, ptr %36, i32 0, i32 3
  %38 = call i32 @ffurl_closep(ptr noundef %37)
  %39 = load ptr, ptr %7, align 8, !tbaa !35
  %40 = getelementptr inbounds nuw %struct.OutputStream, ptr %39, i32 0, i32 0
  %41 = load ptr, ptr %40, align 8, !tbaa !50
  %42 = icmp ne ptr %41, null
  br i1 %42, label %43, label %55

43:                                               ; preds = %23
  %44 = load ptr, ptr %7, align 8, !tbaa !35
  %45 = getelementptr inbounds nuw %struct.OutputStream, ptr %44, i32 0, i32 0
  %46 = load ptr, ptr %45, align 8, !tbaa !50
  %47 = getelementptr inbounds nuw %struct.AVFormatContext, ptr %46, i32 0, i32 4
  %48 = load ptr, ptr %47, align 8, !tbaa !58
  %49 = icmp ne ptr %48, null
  br i1 %49, label %50, label %55

50:                                               ; preds = %43
  %51 = load ptr, ptr %7, align 8, !tbaa !35
  %52 = getelementptr inbounds nuw %struct.OutputStream, ptr %51, i32 0, i32 0
  %53 = load ptr, ptr %52, align 8, !tbaa !50
  %54 = getelementptr inbounds nuw %struct.AVFormatContext, ptr %53, i32 0, i32 4
  call void @avio_context_free(ptr noundef %54)
  br label %55

55:                                               ; preds = %50, %43, %23
  %56 = load ptr, ptr %7, align 8, !tbaa !35
  %57 = getelementptr inbounds nuw %struct.OutputStream, ptr %56, i32 0, i32 0
  %58 = load ptr, ptr %57, align 8, !tbaa !50
  call void @avformat_free_context(ptr noundef %58)
  %59 = load ptr, ptr %7, align 8, !tbaa !35
  %60 = getelementptr inbounds nuw %struct.OutputStream, ptr %59, i32 0, i32 14
  call void @av_freep(ptr noundef %60)
  store i32 0, ptr %5, align 4, !tbaa !28
  br label %61

61:                                               ; preds = %74, %55
  %62 = load i32, ptr %5, align 4, !tbaa !28
  %63 = load ptr, ptr %7, align 8, !tbaa !35
  %64 = getelementptr inbounds nuw %struct.OutputStream, ptr %63, i32 0, i32 9
  %65 = load i32, ptr %64, align 8, !tbaa !97
  %66 = icmp slt i32 %62, %65
  br i1 %66, label %67, label %77

67:                                               ; preds = %61
  %68 = load ptr, ptr %7, align 8, !tbaa !35
  %69 = getelementptr inbounds nuw %struct.OutputStream, ptr %68, i32 0, i32 12
  %70 = load ptr, ptr %69, align 8, !tbaa !98
  %71 = load i32, ptr %5, align 4, !tbaa !28
  %72 = sext i32 %71 to i64
  %73 = getelementptr inbounds ptr, ptr %70, i64 %72
  call void @av_freep(ptr noundef %73)
  br label %74

74:                                               ; preds = %67
  %75 = load i32, ptr %5, align 4, !tbaa !28
  %76 = add nsw i32 %75, 1
  store i32 %76, ptr %5, align 4, !tbaa !28
  br label %61, !llvm.loop !99

77:                                               ; preds = %61
  %78 = load ptr, ptr %7, align 8, !tbaa !35
  %79 = getelementptr inbounds nuw %struct.OutputStream, ptr %78, i32 0, i32 12
  call void @av_freep(ptr noundef %79)
  call void @llvm.lifetime.end.p0(i64 8, ptr %7) #9
  br label %80

80:                                               ; preds = %77
  %81 = load i32, ptr %4, align 4, !tbaa !28
  %82 = add nsw i32 %81, 1
  store i32 %82, ptr %4, align 4, !tbaa !28
  br label %17, !llvm.loop !100

83:                                               ; preds = %17
  %84 = load ptr, ptr %3, align 8, !tbaa !26
  %85 = getelementptr inbounds nuw %struct.SmoothStreamingContext, ptr %84, i32 0, i32 6
  call void @av_freep(ptr noundef %85)
  store i32 0, ptr %6, align 4
  br label %86

86:                                               ; preds = %83, %15
  call void @llvm.lifetime.end.p0(i64 4, ptr %5) #9
  call void @llvm.lifetime.end.p0(i64 4, ptr %4) #9
  call void @llvm.lifetime.end.p0(i64 8, ptr %3) #9
  %87 = load i32, ptr %6, align 4
  switch i32 %87, label %89 [
    i32 0, label %88
    i32 1, label %88
  ]

88:                                               ; preds = %86, %86
  ret void

89:                                               ; preds = %86
  unreachable
}