; Function Attrs: nounwind uwtable
define internal void @ism_free(ptr noundef readonly captures(none) %0) #0 {
  %2 = getelementptr inbounds nuw i8, ptr %0, i64 24
  %3 = load ptr, ptr %2, align 8, !tbaa !4
  %4 = getelementptr inbounds nuw i8, ptr %3, i64 32
  %5 = load ptr, ptr %4, align 8, !tbaa !27
  %.not = icmp eq ptr %5, null
  br i1 %.not, label %38, label %.preheader

.preheader:                                       ; preds = %1
  %6 = getelementptr inbounds nuw i8, ptr %0, i64 44
  %7 = load i32, ptr %6, align 4, !tbaa !26
  %.not29 = icmp eq i32 %7, 0
  br i1 %.not29, label %._crit_edge28, label %.lr.ph27

.lr.ph27:                                         ; preds = %.preheader, %._crit_edge
  %indvars.iv31 = phi i64 [ %indvars.iv.next32, %._crit_edge ], [ 0, %.preheader ]
  %8 = load ptr, ptr %4, align 8, !tbaa !27
  %9 = getelementptr inbounds nuw %struct.OutputStream, ptr %8, i64 %indvars.iv31
  %10 = getelementptr inbounds nuw i8, ptr %9, i64 8
  %11 = tail call i32 @ffurl_closep(ptr noundef nonnull %10) #8
  %12 = getelementptr inbounds nuw i8, ptr %9, i64 16
  %13 = tail call i32 @ffurl_closep(ptr noundef nonnull %12) #8
  %14 = getelementptr inbounds nuw i8, ptr %9, i64 24
  %15 = tail call i32 @ffurl_closep(ptr noundef nonnull %14) #8
  %16 = load ptr, ptr %9, align 8, !tbaa !44
  %.not23 = icmp eq ptr %16, null
  br i1 %.not23, label %21, label %17

17:                                               ; preds = %.lr.ph27
  %18 = getelementptr inbounds nuw i8, ptr %16, i64 32
  %19 = load ptr, ptr %18, align 8, !tbaa !52
  %.not24 = icmp eq ptr %19, null
  br i1 %.not24, label %21, label %20

20:                                               ; preds = %17
  tail call void @avio_context_free(ptr noundef nonnull %18) #8
  %.pre = load ptr, ptr %9, align 8, !tbaa !44
  br label %21

21:                                               ; preds = %20, %17, %.lr.ph27
  %22 = phi ptr [ %.pre, %20 ], [ %16, %17 ], [ null, %.lr.ph27 ]
  tail call void @avformat_free_context(ptr noundef %22) #8
  %23 = getelementptr inbounds nuw i8, ptr %9, i64 104
  tail call void @av_freep(ptr noundef nonnull %23) #8
  %24 = getelementptr inbounds nuw i8, ptr %9, i64 72
  %25 = load i32, ptr %24, align 8, !tbaa !90
  %26 = icmp sgt i32 %25, 0
  br i1 %26, label %.lr.ph, label %._crit_edge

.lr.ph:                                           ; preds = %21
  %27 = getelementptr inbounds nuw i8, ptr %9, i64 88
  br label %28

28:                                               ; preds = %.lr.ph, %28
  %indvars.iv = phi i64 [ 0, %.lr.ph ], [ %indvars.iv.next, %28 ]
  %29 = load ptr, ptr %27, align 8, !tbaa !91
  %30 = getelementptr inbounds nuw ptr, ptr %29, i64 %indvars.iv
  tail call void @av_freep(ptr noundef %30) #8
  %indvars.iv.next = add nuw nsw i64 %indvars.iv, 1
  %31 = load i32, ptr %24, align 8, !tbaa !90
  %32 = sext i32 %31 to i64
  %33 = icmp slt i64 %indvars.iv.next, %32
  br i1 %33, label %28, label %._crit_edge, !llvm.loop !92

._crit_edge:                                      ; preds = %28, %21
  %34 = getelementptr inbounds nuw i8, ptr %9, i64 88
  tail call void @av_freep(ptr noundef nonnull %34) #8
  %indvars.iv.next32 = add nuw nsw i64 %indvars.iv31, 1
  %35 = load i32, ptr %6, align 4, !tbaa !26
  %36 = zext i32 %35 to i64
  %37 = icmp samesign ult i64 %indvars.iv.next32, %36
  br i1 %37, label %.lr.ph27, label %._crit_edge28, !llvm.loop !93

._crit_edge28:                                    ; preds = %._crit_edge, %.preheader
  tail call void @av_freep(ptr noundef nonnull %4) #8
  br label %38

38:                                               ; preds = %1, %._crit_edge28
  ret void
}